; Function Attrs: mustprogress nofree nounwind uwtable
define noundef i32 @_ZN6icu_7512PreparsedUCD14parseCodePointEPKcR10UErrorCode(ptr nocapture noundef nonnull readonly align 8 dereferenceable(14640) %this, ptr noundef %s, ptr nocapture noundef nonnull writeonly align 4 dereferenceable(4) %errorCode) local_unnamed_addr #17 align 2 {
entry:
  %end = alloca ptr, align 8
  %call = call i64 @strtoul(ptr noundef %s, ptr noundef nonnull %end, i32 noundef 16) #21
  %0 = load ptr, ptr %end, align 8
  %cmp.not = icmp ugt ptr %0, %s
  br i1 %cmp.not, label %lor.lhs.false, label %if.then

lor.lhs.false:                                    ; preds = %entry
  %conv = trunc i64 %call to i32
  %1 = load i8, ptr %0, align 1
  %cmp3 = icmp ne i8 %1, 0
  %cmp5 = icmp ugt i32 %conv, 1114111
  %or.cond = select i1 %cmp3, i1 true, i1 %cmp5
  br i1 %or.cond, label %if.then, label %return

if.then:                                          ; preds = %lor.lhs.false, %entry
  %2 = load ptr, ptr @stderr, align 8
  %lineNumber = getelementptr inbounds i8, ptr %this, i64 28
  %3 = load i32, ptr %lineNumber, align 4
  %conv6 = sext i32 %3 to i64
  %call7 = tail call i32 (ptr, ptr, ...) @fprintf(ptr noundef %2, ptr noundef nonnull @.str.19, ptr noundef %s, i64 noundef %conv6) #24
  store i32 9, ptr %errorCode, align 4
  br label %return

return:                                           ; preds = %lor.lhs.false, %if.then
  %retval.0 = phi i32 [ -1, %if.then ], [ %conv, %lor.lhs.false ]
  ret i32 %retval.0
}